target datalayout = "e-m:e-p270:32:32-p271:32:32-p272:64:64-i64:64-i128:128-f80:128-n8:16:32:64-S128"
target triple = "x86_64-pc-linux-gnu"

%struct.H5P_libclass_t = type { ptr, i32, ptr, ptr, ptr, ptr, ptr, ptr, ptr, ptr, ptr, ptr, ptr }
%struct.H5VL_loc_params_t = type { i32, i32, %union.anon }
%union.anon = type { %struct.H5VL_loc_by_idx }
%struct.H5VL_loc_by_idx = type { ptr, i32, i32, i64, i64 }
%struct.H5VL_object_specific_args_t = type { i32, %union.anon.3 }
%union.anon.3 = type { %struct.H5VL_object_visit_args_t }
%struct.H5VL_object_visit_args_t = type { i32, i32, i32, ptr, ptr }
%struct.H5VL_loc_by_name = type { ptr, i64 }
%struct.anon.5 = type { ptr }

@H5_libinit_g = external global i8, align 1
@H5_libterm_g = external global i8, align 1
@.str = private unnamed_addr constant [97 x i8] c"generated/home/dtcxzyw/WorkSpace/Projects/compilers/llvm-opt-benchmark/bench/hdf5/hdf5/src/H5O.c\00", align 1
@H5E_FUNC_g = external global i64, align 8
@H5E_CANTINIT_g = external global i64, align 8
@.str.1 = private unnamed_addr constant [30 x i8] c"library initialization failed\00", align 1
@H5E_CANTSET_g = external global i64, align 8
@.str.2 = private unnamed_addr constant [22 x i8] c"can't set API context\00", align 1
@H5E_OHDR_g = external global i64, align 8
@H5E_ARGS_g = external global i64, align 8
@H5E_BADVALUE_g = external global i64, align 8
@H5E_BADTYPE_g = external global i64, align 8
@.str.21 = private unnamed_addr constant [28 x i8] c"invalid location identifier\00", align 1
@H5P_LST_DATASET_XFER_ID_g = external global i64, align 8
@H5P_CLS_LACC = external constant [1 x %struct.H5P_libclass_t], align 16
@.str.44 = private unnamed_addr constant [36 x i8] c"can't set access property list info\00", align 1
@__func__.H5Oexists_by_name = private unnamed_addr constant [18 x i8] c"H5Oexists_by_name\00", align 1
@.str.49 = private unnamed_addr constant [30 x i8] c"name parameter cannot be NULL\00", align 1
@.str.50 = private unnamed_addr constant [41 x i8] c"name parameter cannot be an empty string\00", align 1
@H5E_CANTGET_g = external global i64, align 8
@.str.51 = private unnamed_addr constant [35 x i8] c"unable to determine if '%s' exists\00", align 1

; Function Attrs: nounwind uwtable
define i32 @H5Oexists_by_name(i64 noundef %0, ptr noundef %1, i64 noundef %2) #0 {
  %4 = alloca i64, align 8
  %5 = alloca ptr, align 8
  %6 = alloca i64, align 8
  %7 = alloca ptr, align 8
  %8 = alloca %struct.H5VL_object_specific_args_t, align 8
  %9 = alloca %struct.H5VL_loc_params_t, align 8
  %10 = alloca i8, align 1
  %11 = alloca i32, align 4
  %12 = alloca i8, align 1
  %13 = alloca i8, align 1
  store i64 %0, ptr %4, align 8
  store ptr %1, ptr %5, align 8
  store i64 %2, ptr %6, align 8
  store i8 0, ptr %10, align 1
  store i32 -1, ptr %11, align 4
  store i8 0, ptr %12, align 1
  store i8 0, ptr %13, align 1
  %14 = load i8, ptr @H5_libinit_g, align 1
  %15 = trunc i8 %14 to i1
  br i1 %15, label %20, label %16

16:                                               ; preds = %3
  %17 = load i8, ptr @H5_libterm_g, align 1
  %18 = trunc i8 %17 to i1
  %19 = xor i1 %18, true
  br label %20

20:                                               ; preds = %16, %3
  %21 = phi i1 [ false, %3 ], [ %19, %16 ]
  %22 = xor i1 %21, true
  %23 = xor i1 %22, true
  %24 = zext i1 %23 to i32
  %25 = sext i32 %24 to i64
  %26 = icmp ne i64 %25, 0
  br i1 %26, label %27, label %51

27:                                               ; preds = %20
  %28 = call i32 @H5_init_library()
  %29 = icmp slt i32 %28, 0
  %30 = xor i1 %29, true
  %31 = xor i1 %30, true
  %32 = zext i1 %31 to i32
  %33 = sext i32 %32 to i64
  %34 = icmp ne i64 %33, 0
  br i1 %34, label %35, label %50

35:                                               ; preds = %27
  br label %36

36:                                               ; preds = %35
  br label %37

37:                                               ; preds = %36
  br label %38

38:                                               ; preds = %37
  %39 = load i64, ptr @H5E_FUNC_g, align 8
  %40 = load i64, ptr @H5E_CANTINIT_g, align 8
  %41 = call i32 (ptr, ptr, i32, i64, i64, ptr, ...) @H5E_printf_stack(ptr noundef @.str, ptr noundef @__func__.H5Oexists_by_name, i32 noundef 1008, i64 noundef %39, i64 noundef %40, ptr noundef @.str.1)
  br label %42

42:                                               ; preds = %38
  store i8 1, ptr %13, align 1
  %43 = load i8, ptr %13, align 1
  %44 = trunc i8 %43 to i1
  %45 = zext i1 %44 to i8
  store i8 %45, ptr %13, align 1
  br label %46

46:                                               ; preds = %42
  br label %47

47:                                               ; preds = %46
  store i32 -1, ptr %11, align 4
  br label %189

48:                                               ; No predecessors!
  br label %49

49:                                               ; preds = %48
  br label %50

50:                                               ; preds = %49, %27
  br label %51

51:                                               ; preds = %50, %20
  %52 = call i32 @H5CX_push()
  %53 = icmp slt i32 %52, 0
  %54 = xor i1 %53, true
  %55 = xor i1 %54, true
  %56 = zext i1 %55 to i32
  %57 = sext i32 %56 to i64
  %58 = icmp ne i64 %57, 0
  br i1 %58, label %59, label %74

59:                                               ; preds = %51
  br label %60

60:                                               ; preds = %59
  br label %61

61:                                               ; preds = %60
  br label %62

62:                                               ; preds = %61
  %63 = load i64, ptr @H5E_FUNC_g, align 8
  %64 = load i64, ptr @H5E_CANTSET_g, align 8
  %65 = call i32 (ptr, ptr, i32, i64, i64, ptr, ...) @H5E_printf_stack(ptr noundef @.str, ptr noundef @__func__.H5Oexists_by_name, i32 noundef 1008, i64 noundef %63, i64 noundef %64, ptr noundef @.str.2)
  br label %66

66:                                               ; preds = %62
  store i8 1, ptr %13, align 1
  %67 = load i8, ptr %13, align 1
  %68 = trunc i8 %67 to i1
  %69 = zext i1 %68 to i8
  store i8 %69, ptr %13, align 1
  br label %70

70:                                               ; preds = %66
  br label %71

71:                                               ; preds = %70
  store i32 -1, ptr %11, align 4
  br label %189

72:                                               ; No predecessors!
  br label %73

73:                                               ; preds = %72
  br label %75

74:                                               ; preds = %51
  store i8 1, ptr %12, align 1
  br label %75

75:                                               ; preds = %74, %73
  %76 = call i32 @H5E_clear_stack()
  %77 = load ptr, ptr %5, align 8
  %78 = icmp ne ptr %77, null
  br i1 %78, label %94, label %79

79:                                               ; preds = %75
  br label %80

80:                                               ; preds = %79
  br label %81

81:                                               ; preds = %80
  br label %82

82:                                               ; preds = %81
  %83 = load i64, ptr @H5E_ARGS_g, align 8
  %84 = load i64, ptr @H5E_BADVALUE_g, align 8
  %85 = call i32 (ptr, ptr, i32, i64, i64, ptr, ...) @H5E_printf_stack(ptr noundef @.str, ptr noundef @__func__.H5Oexists_by_name, i32 noundef 1012, i64 noundef %83, i64 noundef %84, ptr noundef @.str.49)
  br label %86

86:                                               ; preds = %82
  store i8 1, ptr %13, align 1
  %87 = load i8, ptr %13, align 1
  %88 = trunc i8 %87 to i1
  %89 = zext i1 %88 to i8
  store i8 %89, ptr %13, align 1
  br label %90

90:                                               ; preds = %86
  br label %91

91:                                               ; preds = %90
  store i32 -1, ptr %11, align 4
  br label %189

92:                                               ; No predecessors!
  br label %93

93:                                               ; preds = %92
  br label %94

94:                                               ; preds = %93, %75
  %95 = load ptr, ptr %5, align 8
  %96 = load i8, ptr %95, align 1
  %97 = icmp ne i8 %96, 0
  br i1 %97, label %113, label %98

98:                                               ; preds = %94
  br label %99

99:                                               ; preds = %98
  br label %100

100:                                              ; preds = %99
  br label %101

101:                                              ; preds = %100
  %102 = load i64, ptr @H5E_ARGS_g, align 8
  %103 = load i64, ptr @H5E_BADVALUE_g, align 8
  %104 = call i32 (ptr, ptr, i32, i64, i64, ptr, ...) @H5E_printf_stack(ptr noundef @.str, ptr noundef @__func__.H5Oexists_by_name, i32 noundef 1014, i64 noundef %102, i64 noundef %103, ptr noundef @.str.50)
  br label %105

105:                                              ; preds = %101
  store i8 1, ptr %13, align 1
  %106 = load i8, ptr %13, align 1
  %107 = trunc i8 %106 to i1
  %108 = zext i1 %107 to i8
  store i8 %108, ptr %13, align 1
  br label %109

109:                                              ; preds = %105
  br label %110

110:                                              ; preds = %109
  store i32 -1, ptr %11, align 4
  br label %189

111:                                              ; No predecessors!
  br label %112

112:                                              ; preds = %111
  br label %113

113:                                              ; preds = %112, %94
  %114 = load i64, ptr %4, align 8
  %115 = call i32 @H5CX_set_apl(ptr noundef %6, ptr noundef @H5P_CLS_LACC, i64 noundef %114, i1 noundef zeroext false)
  %116 = icmp slt i32 %115, 0
  br i1 %116, label %117, label %132

117:                                              ; preds = %113
  br label %118

118:                                              ; preds = %117
  br label %119

119:                                              ; preds = %118
  br label %120

120:                                              ; preds = %119
  %121 = load i64, ptr @H5E_OHDR_g, align 8
  %122 = load i64, ptr @H5E_CANTSET_g, align 8
  %123 = call i32 (ptr, ptr, i32, i64, i64, ptr, ...) @H5E_printf_stack(ptr noundef @.str, ptr noundef @__func__.H5Oexists_by_name, i32 noundef 1018, i64 noundef %121, i64 noundef %122, ptr noundef @.str.44)
  br label %124

124:                                              ; preds = %120
  store i8 1, ptr %13, align 1
  %125 = load i8, ptr %13, align 1
  %126 = trunc i8 %125 to i1
  %127 = zext i1 %126 to i8
  store i8 %127, ptr %13, align 1
  br label %128

128:                                              ; preds = %124
  br label %129

129:                                              ; preds = %128
  store i32 -1, ptr %11, align 4
  br label %189

130:                                              ; No predecessors!
  br label %131

131:                                              ; preds = %130
  br label %132

132:                                              ; preds = %131, %113
  %133 = load i64, ptr %4, align 8
  %134 = call ptr @H5VL_vol_object(i64 noundef %133)
  store ptr %134, ptr %7, align 8
  %135 = icmp eq ptr null, %134
  br i1 %135, label %136, label %151

136:                                              ; preds = %132
  br label %137

137:                                              ; preds = %136
  br label %138

138:                                              ; preds = %137
  br label %139

139:                                              ; preds = %138
  %140 = load i64, ptr @H5E_ARGS_g, align 8
  %141 = load i64, ptr @H5E_BADTYPE_g, align 8
  %142 = call i32 (ptr, ptr, i32, i64, i64, ptr, ...) @H5E_printf_stack(ptr noundef @.str, ptr noundef @__func__.H5Oexists_by_name, i32 noundef 1022, i64 noundef %140, i64 noundef %141, ptr noundef @.str.21)
  br label %143

143:                                              ; preds = %139
  store i8 1, ptr %13, align 1
  %144 = load i8, ptr %13, align 1
  %145 = trunc i8 %144 to i1
  %146 = zext i1 %145 to i8
  store i8 %146, ptr %13, align 1
  br label %147

147:                                              ; preds = %143
  br label %148

148:                                              ; preds = %147
  store i32 -1, ptr %11, align 4
  br label %189

149:                                              ; No predecessors!
  br label %150

150:                                              ; preds = %149
  br label %151

151:                                              ; preds = %150, %132
  %152 = getelementptr inbounds %struct.H5VL_loc_params_t, ptr %9, i32 0, i32 1
  store i32 1, ptr %152, align 4
  %153 = load ptr, ptr %5, align 8
  %154 = getelementptr inbounds %struct.H5VL_loc_params_t, ptr %9, i32 0, i32 2
  %155 = getelementptr inbounds %struct.H5VL_loc_by_name, ptr %154, i32 0, i32 0
  store ptr %153, ptr %155, align 8
  %156 = load i64, ptr %6, align 8
  %157 = getelementptr inbounds %struct.H5VL_loc_params_t, ptr %9, i32 0, i32 2
  %158 = getelementptr inbounds %struct.H5VL_loc_by_name, ptr %157, i32 0, i32 1
  store i64 %156, ptr %158, align 8
  %159 = load i64, ptr %4, align 8
  %160 = call i32 @H5I_get_type(i64 noundef %159)
  %161 = getelementptr inbounds %struct.H5VL_loc_params_t, ptr %9, i32 0, i32 0
  store i32 %160, ptr %161, align 8
  %162 = getelementptr inbounds %struct.H5VL_object_specific_args_t, ptr %8, i32 0, i32 0
  store i32 1, ptr %162, align 8
  %163 = getelementptr inbounds %struct.H5VL_object_specific_args_t, ptr %8, i32 0, i32 1
  %164 = getelementptr inbounds %struct.anon.5, ptr %163, i32 0, i32 0
  store ptr %10, ptr %164, align 8
  %165 = load ptr, ptr %7, align 8
  %166 = load i64, ptr @H5P_LST_DATASET_XFER_ID_g, align 8
  %167 = call i32 @H5VL_object_specific(ptr noundef %165, ptr noundef %9, ptr noundef %8, i64 noundef %166, ptr noundef null)
  %168 = icmp slt i32 %167, 0
  br i1 %168, label %169, label %185

169:                                              ; preds = %151
  br label %170

170:                                              ; preds = %169
  br label %171

171:                                              ; preds = %170
  br label %172

172:                                              ; preds = %171
  %173 = load i64, ptr @H5E_OHDR_g, align 8
  %174 = load i64, ptr @H5E_CANTGET_g, align 8
  %175 = load ptr, ptr %5, align 8
  %176 = call i32 (ptr, ptr, i32, i64, i64, ptr, ...) @H5E_printf_stack(ptr noundef @.str, ptr noundef @__func__.H5Oexists_by_name, i32 noundef 1037, i64 noundef %173, i64 noundef %174, ptr noundef @.str.51, ptr noundef %175)
  br label %177

177:                                              ; preds = %172
  store i8 1, ptr %13, align 1
  %178 = load i8, ptr %13, align 1
  %179 = trunc i8 %178 to i1
  %180 = zext i1 %179 to i8
  store i8 %180, ptr %13, align 1
  br label %181

181:                                              ; preds = %177
  br label %182

182:                                              ; preds = %181
  store i32 -1, ptr %11, align 4
  br label %189

183:                                              ; No predecessors!
  br label %184

184:                                              ; preds = %183
  br label %185

185:                                              ; preds = %184, %151
  %186 = load i8, ptr %10, align 1
  %187 = trunc i8 %186 to i1
  %188 = zext i1 %187 to i32
  store i32 %188, ptr %11, align 4
  br label %189

189:                                              ; preds = %185, %182, %148, %129, %110, %91, %71, %47
  %190 = load i8, ptr %12, align 1
  %191 = trunc i8 %190 to i1
  %192 = xor i1 %191, true
  %193 = xor i1 %192, true
  %194 = zext i1 %193 to i32
  %195 = sext i32 %194 to i64
  %196 = icmp ne i64 %195, 0
  br i1 %196, label %197, label %199

197:                                              ; preds = %189
  %198 = call i32 @H5CX_pop(i1 noundef zeroext true)
  store i8 0, ptr %12, align 1
  br label %199

199:                                              ; preds = %197, %189
  %200 = load i8, ptr %13, align 1
  %201 = trunc i8 %200 to i1
  %202 = xor i1 %201, true
  %203 = xor i1 %202, true
  %204 = zext i1 %203 to i32
  %205 = sext i32 %204 to i64
  %206 = icmp ne i64 %205, 0
  br i1 %206, label %207, label %209

207:                                              ; preds = %199
  %208 = call i32 @H5E_dump_api_stack()
  br label %209

209:                                              ; preds = %207, %199
  %210 = load i32, ptr %11, align 4
  ret i32 %210
}