; Function Attrs: nounwind uwtable
define range(i32 -1, 2) i32 @H5Oexists_by_name(i64 noundef %0, ptr noundef %1, i64 noundef %2) local_unnamed_addr #0 {
  %4 = alloca i64, align 8
  %5 = alloca %struct.H5VL_object_specific_args_t, align 8
  %6 = alloca %struct.H5VL_loc_params_t, align 8
  %7 = alloca i8, align 1
  store i64 %2, ptr %4, align 8
  store i8 0, ptr %7, align 1
  %8 = load i8, ptr @H5_libinit_g, align 1
  %9 = trunc i8 %8 to i1
  %10 = load i8, ptr @H5_libterm_g, align 1
  %11 = trunc i8 %10 to i1
  %12 = select i1 %9, i1 true, i1 %11
  br i1 %12, label %20, label %13

13:                                               ; preds = %3
  %14 = tail call i32 @H5_init_library() #4
  %15 = icmp slt i32 %14, 0
  br i1 %15, label %16, label %20

16:                                               ; preds = %13
  %17 = load i64, ptr @H5E_FUNC_g, align 8
  %18 = load i64, ptr @H5E_CANTINIT_g, align 8
  %19 = tail call i32 (ptr, ptr, i32, i64, i64, ptr, ...) @H5E_printf_stack(ptr noundef nonnull @.str, ptr noundef nonnull @__func__.H5Oexists_by_name, i32 noundef 1008, i64 noundef %17, i64 noundef %18, ptr noundef nonnull @.str.1) #4
  br label %.thread30

20:                                               ; preds = %13, %3
  %21 = tail call i32 @H5CX_push() #4
  %22 = icmp slt i32 %21, 0
  br i1 %22, label %23, label %27

23:                                               ; preds = %20
  %24 = load i64, ptr @H5E_FUNC_g, align 8
  %25 = load i64, ptr @H5E_CANTSET_g, align 8
  %26 = tail call i32 (ptr, ptr, i32, i64, i64, ptr, ...) @H5E_printf_stack(ptr noundef nonnull @.str, ptr noundef nonnull @__func__.H5Oexists_by_name, i32 noundef 1008, i64 noundef %24, i64 noundef %25, ptr noundef nonnull @.str.2) #4
  br label %.thread30

27:                                               ; preds = %20
  %28 = tail call i32 @H5E_clear_stack() #4
  %.not = icmp eq ptr %1, null
  br i1 %.not, label %29, label %33

29:                                               ; preds = %27
  %30 = load i64, ptr @H5E_ARGS_g, align 8
  %31 = load i64, ptr @H5E_BADVALUE_g, align 8
  %32 = tail call i32 (ptr, ptr, i32, i64, i64, ptr, ...) @H5E_printf_stack(ptr noundef nonnull @.str, ptr noundef nonnull @__func__.H5Oexists_by_name, i32 noundef 1012, i64 noundef %30, i64 noundef %31, ptr noundef nonnull @.str.49) #4
  br label %.thread36

33:                                               ; preds = %27
  %34 = load i8, ptr %1, align 1
  %.not21 = icmp eq i8 %34, 0
  br i1 %.not21, label %35, label %39

35:                                               ; preds = %33
  %36 = load i64, ptr @H5E_ARGS_g, align 8
  %37 = load i64, ptr @H5E_BADVALUE_g, align 8
  %38 = tail call i32 (ptr, ptr, i32, i64, i64, ptr, ...) @H5E_printf_stack(ptr noundef nonnull @.str, ptr noundef nonnull @__func__.H5Oexists_by_name, i32 noundef 1014, i64 noundef %36, i64 noundef %37, ptr noundef nonnull @.str.50) #4
  br label %.thread36

39:                                               ; preds = %33
  %40 = call i32 @H5CX_set_apl(ptr noundef nonnull %4, ptr noundef nonnull @H5P_CLS_LACC, i64 noundef %0, i1 noundef zeroext false) #4
  %41 = icmp slt i32 %40, 0
  br i1 %41, label %42, label %46

42:                                               ; preds = %39
  %43 = load i64, ptr @H5E_OHDR_g, align 8
  %44 = load i64, ptr @H5E_CANTSET_g, align 8
  %45 = call i32 (ptr, ptr, i32, i64, i64, ptr, ...) @H5E_printf_stack(ptr noundef nonnull @.str, ptr noundef nonnull @__func__.H5Oexists_by_name, i32 noundef 1018, i64 noundef %43, i64 noundef %44, ptr noundef nonnull @.str.44) #4
  br label %.thread36

46:                                               ; preds = %39
  %47 = call ptr @H5VL_vol_object(i64 noundef %0) #4
  %48 = icmp eq ptr %47, null
  br i1 %48, label %49, label %53

49:                                               ; preds = %46
  %50 = load i64, ptr @H5E_ARGS_g, align 8
  %51 = load i64, ptr @H5E_BADTYPE_g, align 8
  %52 = call i32 (ptr, ptr, i32, i64, i64, ptr, ...) @H5E_printf_stack(ptr noundef nonnull @.str, ptr noundef nonnull @__func__.H5Oexists_by_name, i32 noundef 1022, i64 noundef %50, i64 noundef %51, ptr noundef nonnull @.str.21) #4
  br label %.thread36

53:                                               ; preds = %46
  %54 = getelementptr inbounds i8, ptr %6, i64 4
  store i32 1, ptr %54, align 4
  %55 = getelementptr inbounds i8, ptr %6, i64 8
  store ptr %1, ptr %55, align 8
  %56 = load i64, ptr %4, align 8
  %57 = getelementptr inbounds i8, ptr %6, i64 16
  store i64 %56, ptr %57, align 8
  %58 = call i32 @H5I_get_type(i64 noundef %0) #4
  store i32 %58, ptr %6, align 8
  store i32 1, ptr %5, align 8
  %59 = getelementptr inbounds i8, ptr %5, i64 8
  store ptr %7, ptr %59, align 8
  %60 = load i64, ptr @H5P_LST_DATASET_XFER_ID_g, align 8
  %61 = call i32 @H5VL_object_specific(ptr noundef nonnull %47, ptr noundef nonnull %6, ptr noundef nonnull %5, i64 noundef %60, ptr noundef null) #4
  %62 = icmp slt i32 %61, 0
  br i1 %62, label %63, label %68

63:                                               ; preds = %53
  %64 = load i64, ptr @H5E_OHDR_g, align 8
  %65 = load i64, ptr @H5E_CANTGET_g, align 8
  %66 = call i32 (ptr, ptr, i32, i64, i64, ptr, ...) @H5E_printf_stack(ptr noundef nonnull @.str, ptr noundef nonnull @__func__.H5Oexists_by_name, i32 noundef 1037, i64 noundef %64, i64 noundef %65, ptr noundef nonnull @.str.51, ptr noundef nonnull %1) #4
  br label %.thread36

.thread36:                                        ; preds = %29, %35, %63, %49, %42
  %67 = call i32 @H5CX_pop(i1 noundef zeroext true) #4
  br label %.thread30

68:                                               ; preds = %53
  %69 = load i8, ptr %7, align 1
  %70 = and i8 %69, 1
  %71 = zext nneg i8 %70 to i32
  %72 = call i32 @H5CX_pop(i1 noundef zeroext true) #4
  br label %74

.thread30:                                        ; preds = %23, %16, %.thread36
  %73 = call i32 @H5E_dump_api_stack() #4
  br label %74

74:                                               ; preds = %68, %.thread30
  %.0182533 = phi i32 [ -1, %.thread30 ], [ %71, %68 ]
  ret i32 %.0182533
}